; ModuleID = '29/1587.cpp'
source_filename = "29/1587.cpp"
target datalayout = "e-m:e-p270:32:32-p271:32:32-p272:64:64-i64:64-f80:128-n8:16:32:64-S128"
target triple = "x86_64-pc-linux-gnu"

%"class.std::ios_base::Init" = type { i8 }
%"class.std::basic_istream" = type { i32 (...)**, i64, %"class.std::basic_ios" }
%"class.std::basic_ios" = type { %"class.std::ios_base", %"class.std::basic_ostream"*, i8, i8, %"class.std::basic_streambuf"*, %"class.std::ctype"*, %"class.std::num_put"*, %"class.std::num_get"* }
%"class.std::ios_base" = type { i32 (...)**, i64, i64, i32, i32, i32, %"struct.std::ios_base::_Callback_list"*, %"struct.std::ios_base::_Words", [8 x %"struct.std::ios_base::_Words"], i32, %"struct.std::ios_base::_Words"*, %"class.std::locale" }
%"struct.std::ios_base::_Callback_list" = type { %"struct.std::ios_base::_Callback_list"*, void (i32, %"class.std::ios_base"*, i32)*, i32, i32 }
%"struct.std::ios_base::_Words" = type { i8*, i64 }
%"class.std::locale" = type { %"class.std::locale::_Impl"* }
%"class.std::locale::_Impl" = type { i32, %"class.std::locale::facet"**, i64, %"class.std::locale::facet"**, i8** }
%"class.std::locale::facet" = type <{ i32 (...)**, i32, [4 x i8] }>
%"class.std::basic_ostream" = type { i32 (...)**, %"class.std::basic_ios" }
%"class.std::basic_streambuf" = type { i32 (...)**, i8*, i8*, i8*, i8*, i8*, i8*, %"class.std::locale" }
%"class.std::ctype" = type <{ %"class.std::locale::facet.base", [4 x i8], %struct.__locale_struct*, i8, [7 x i8], i32*, i32*, i16*, i8, [256 x i8], [256 x i8], i8, [6 x i8] }>
%"class.std::locale::facet.base" = type <{ i32 (...)**, i32 }>
%struct.__locale_struct = type { [13 x %struct.__locale_data*], i16*, i32*, i32*, [13 x i8*] }
%struct.__locale_data = type opaque
%"class.std::num_put" = type { %"class.std::locale::facet.base", [4 x i8] }
%"class.std::num_get" = type { %"class.std::locale::facet.base", [4 x i8] }

@_ZStL8__ioinit = internal global %"class.std::ios_base::Init" zeroinitializer, align 1
@__dso_handle = external hidden global i8
@_ZSt3cin = external dso_local global %"class.std::basic_istream", align 8
@.str = private unnamed_addr constant [5 x i8] c"%.3f\00", align 1
@_ZSt4cout = external dso_local global %"class.std::basic_ostream", align 8
@llvm.global_ctors = appending global [1 x { i32, void ()*, i8* }] [{ i32, void ()*, i8* } { i32 65535, void ()* @_GLOBAL__sub_I_1587.cpp, i8* null }]

; Function Attrs: noinline uwtable
define internal void @__cxx_global_var_init() #0 section ".text.startup" {
  call void @_ZNSt8ios_base4InitC1Ev(%"class.std::ios_base::Init"* @_ZStL8__ioinit)
  %1 = call i32 @__cxa_atexit(void (i8*)* bitcast (void (%"class.std::ios_base::Init"*)* @_ZNSt8ios_base4InitD1Ev to void (i8*)*), i8* getelementptr inbounds (%"class.std::ios_base::Init", %"class.std::ios_base::Init"* @_ZStL8__ioinit, i32 0, i32 0), i8* @__dso_handle) #3
  ret void
}

declare dso_local void @_ZNSt8ios_base4InitC1Ev(%"class.std::ios_base::Init"*) unnamed_addr #1

; Function Attrs: nounwind
declare dso_local void @_ZNSt8ios_base4InitD1Ev(%"class.std::ios_base::Init"*) unnamed_addr #2

; Function Attrs: nounwind
declare dso_local i32 @__cxa_atexit(void (i8*)*, i8*, i8*) #3

; Function Attrs: noinline norecurse uwtable
define dso_local i32 @main() #4 {
  %1 = alloca i32, align 4
  %2 = alloca i32, align 4
  %3 = alloca double, align 8
  %4 = alloca i32, align 4
  %5 = alloca i32, align 4
  %6 = alloca float, align 4
  %7 = alloca float, align 4
  %8 = alloca float, align 4
  %9 = alloca float, align 4
  %10 = alloca [100 x float], align 16
  %11 = alloca i32, align 4
  %12 = alloca i32, align 4
  %13 = alloca i32, align 4
  %14 = alloca i32, align 4
  store i32 0, i32* %1, align 4
  store i32 0, i32* %2, align 4
  store double 0.000000e+00, double* %3, align 8
  %15 = call dereferenceable(280) %"class.std::basic_istream"* @_ZNSirsERi(%"class.std::basic_istream"* @_ZSt3cin, i32* dereferenceable(4) %2)
  store i32 0, i32* %4, align 4
  store i32 0, i32* %5, align 4
  store float 2.000000e+00, float* %6, align 4
  store float 1.000000e+00, float* %7, align 4
  store float 3.000000e+00, float* %8, align 4
  store float 2.000000e+00, float* %9, align 4
  store i32 0, i32* %11, align 4
  %16 = getelementptr inbounds [100 x float], [100 x float]* %10, i64 0, i64 0
  store float 2.000000e+00, float* %16, align 16
  %17 = getelementptr inbounds [100 x float], [100 x float]* %10, i64 0, i64 1
  store float 1.500000e+00, float* %17, align 4
  store i32 0, i32* %12, align 4
  store i32 0, i32* %13, align 4
  store i32 2, i32* %11, align 4
  br label %18

18:                                               ; preds = %46, %0
  %19 = load i32, i32* %11, align 4
  %20 = icmp slt i32 %19, 100
  br i1 %20, label %21, label %49

21:                                               ; preds = %18
  %22 = load float, float* %6, align 4
  %23 = load float, float* %8, align 4
  %24 = fadd float %22, %23
  %25 = load float, float* %7, align 4
  %26 = load float, float* %9, align 4
  %27 = fadd float %25, %26
  %28 = fdiv float %24, %27
  %29 = load i32, i32* %11, align 4
  %30 = sext i32 %29 to i64
  %31 = getelementptr inbounds [100 x float], [100 x float]* %10, i64 0, i64 %30
  store float %28, float* %31, align 4
  %32 = load float, float* %6, align 4
  %33 = load float, float* %8, align 4
  %34 = fadd float %32, %33
  %35 = fptosi float %34 to i32
  store i32 %35, i32* %12, align 4
  %36 = load float, float* %7, align 4
  %37 = load float, float* %9, align 4
  %38 = fadd float %36, %37
  %39 = fptosi float %38 to i32
  store i32 %39, i32* %13, align 4
  %40 = load float, float* %8, align 4
  store float %40, float* %6, align 4
  %41 = load i32, i32* %12, align 4
  %42 = sitofp i32 %41 to float
  store float %42, float* %8, align 4
  %43 = load float, float* %9, align 4
  store float %43, float* %7, align 4
  %44 = load i32, i32* %13, align 4
  %45 = sitofp i32 %44 to float
  store float %45, float* %9, align 4
  br label %46

46:                                               ; preds = %21
  %47 = load i32, i32* %11, align 4
  %48 = add nsw i32 %47, 1
  store i32 %48, i32* %11, align 4
  br label %18

49:                                               ; preds = %18
  store i32 0, i32* %14, align 4
  store i32 0, i32* %4, align 4
  br label %50

50:                                               ; preds = %75, %49
  %51 = load i32, i32* %4, align 4
  %52 = load i32, i32* %2, align 4
  %53 = icmp slt i32 %51, %52
  br i1 %53, label %54, label %78

54:                                               ; preds = %50
  %55 = call dereferenceable(280) %"class.std::basic_istream"* @_ZNSirsERi(%"class.std::basic_istream"* @_ZSt3cin, i32* dereferenceable(4) %14)
  store i32 0, i32* %5, align 4
  br label %56

56:                                               ; preds = %68, %54
  %57 = load i32, i32* %5, align 4
  %58 = load i32, i32* %14, align 4
  %59 = icmp slt i32 %57, %58
  br i1 %59, label %60, label %71

60:                                               ; preds = %56
  %61 = load double, double* %3, align 8
  %62 = load i32, i32* %5, align 4
  %63 = sext i32 %62 to i64
  %64 = getelementptr inbounds [100 x float], [100 x float]* %10, i64 0, i64 %63
  %65 = load float, float* %64, align 4
  %66 = fpext float %65 to double
  %67 = fadd double %61, %66
  store double %67, double* %3, align 8
  br label %68

68:                                               ; preds = %60
  %69 = load i32, i32* %5, align 4
  %70 = add nsw i32 %69, 1
  store i32 %70, i32* %5, align 4
  br label %56

71:                                               ; preds = %56
  %72 = load double, double* %3, align 8
  %73 = call i32 (i8*, ...) @printf(i8* getelementptr inbounds ([5 x i8], [5 x i8]* @.str, i64 0, i64 0), double %72)
  %74 = call dereferenceable(272) %"class.std::basic_ostream"* @_ZNSolsEPFRSoS_E(%"class.std::basic_ostream"* @_ZSt4cout, %"class.std::basic_ostream"* (%"class.std::basic_ostream"*)* @_ZSt4endlIcSt11char_traitsIcEERSt13basic_ostreamIT_T0_ES6_)
  store double 0.000000e+00, double* %3, align 8
  br label %75

75:                                               ; preds = %71
  %76 = load i32, i32* %4, align 4
  %77 = add nsw i32 %76, 1
  store i32 %77, i32* %4, align 4
  br label %50

78:                                               ; preds = %50
  ret i32 0
}

declare dso_local dereferenceable(280) %"class.std::basic_istream"* @_ZNSirsERi(%"class.std::basic_istream"*, i32* dereferenceable(4)) #1

declare dso_local i32 @printf(i8*, ...) #1

declare dso_local dereferenceable(272) %"class.std::basic_ostream"* @_ZNSolsEPFRSoS_E(%"class.std::basic_ostream"*, %"class.std::basic_ostream"* (%"class.std::basic_ostream"*)*) #1

declare dso_local dereferenceable(272) %"class.std::basic_ostream"* @_ZSt4endlIcSt11char_traitsIcEERSt13basic_ostreamIT_T0_ES6_(%"class.std::basic_ostream"* dereferenceable(272)) #1

; Function Attrs: noinline uwtable
define internal void @_GLOBAL__sub_I_1587.cpp() #0 section ".text.startup" {
  call void @__cxx_global_var_init()
  ret void
}


!llvm.module.flags = !{!0}
!llvm.ident = !{!1}

!0 = !{i32 1, !"wchar_size", i32 4}
!1 = !{!"clang version 10.0.0-4ubuntu1 "}
