; ModuleID = 'source-C-CXX/28/1587.cpp'
source_filename = "source-C-CXX/28/1587.cpp"
target datalayout = "e-m:e-p270:32:32-p271:32:32-p272:64:64-i64:64-f80:128-n8:16:32:64-S128"
target triple = "x86_64-pc-linux-gnu"

%"class.std::ios_base::Init" = type { i8 }
%"class.std::basic_istream" = type { i32 (...)**, i64, %"class.std::basic_ios" }
%"class.std::basic_ios" = type { %"class.std::ios_base", %"class.std::basic_ostream"*, i8, i8, %"class.std::basic_streambuf"*, %"class.std::ctype"*, %"class.std::num_put"*, %"class.std::num_get"* }
%"class.std::ios_base" = type { i32 (...)**, i64, i64, i32, i32, i32, %"struct.std::ios_base::_Callback_list"*, %"struct.std::ios_base::_Words", [8 x %"struct.std::ios_base::_Words"], i32, %"struct.std::ios_base::_Words"*, %"class.std::locale" }
%"struct.std::ios_base::_Callback_list" = type { %"struct.std::ios_base::_Callback_list"*, void (i32, %"class.std::ios_base"*, i32)*, i32, i32 }
%"struct.std::ios_base::_Words" = type { i8*, i64 }
%"class.std::locale" = type { %"class.std::locale::_Impl"* }
%"class.std::locale::_Impl" = type { i32, %"class.std::locale::facet"**, i64, %"class.std::locale::facet"**, i8** }
%"class.std::locale::facet" = type <{ i32 (...)**, i32, [4 x i8] }>
%"class.std::basic_ostream" = type { i32 (...)**, %"class.std::basic_ios" }
%"class.std::basic_streambuf" = type { i32 (...)**, i8*, i8*, i8*, i8*, i8*, i8*, %"class.std::locale" }
%"class.std::ctype" = type <{ %"class.std::locale::facet.base", [4 x i8], %struct.__locale_struct*, i8, [7 x i8], i32*, i32*, i16*, i8, [256 x i8], [256 x i8], i8, [6 x i8] }>
%"class.std::locale::facet.base" = type <{ i32 (...)**, i32 }>
%struct.__locale_struct = type { [13 x %struct.__locale_data*], i16*, i32*, i32*, [13 x i8*] }
%struct.__locale_data = type opaque
%"class.std::num_put" = type { %"class.std::locale::facet.base", [4 x i8] }
%"class.std::num_get" = type { %"class.std::locale::facet.base", [4 x i8] }

@_ZStL8__ioinit = internal global %"class.std::ios_base::Init" zeroinitializer, align 1
@__dso_handle = external hidden global i8
@_ZSt3cin = external global %"class.std::basic_istream", align 8
@.str = private unnamed_addr constant [5 x i8] c"%.3f\00", align 1
@_ZSt4cout = external global %"class.std::basic_ostream", align 8
@llvm.global_ctors = appending global [1 x { i32, void ()*, i8* }] [{ i32, void ()*, i8* } { i32 65535, void ()* @_GLOBAL__sub_I_1587.cpp, i8* null }]

declare void @_ZNSt8ios_base4InitC1Ev(%"class.std::ios_base::Init"* nonnull align 1 dereferenceable(1)) unnamed_addr #0

; Function Attrs: nounwind
declare void @_ZNSt8ios_base4InitD1Ev(%"class.std::ios_base::Init"* nonnull align 1 dereferenceable(1)) unnamed_addr #1

; Function Attrs: nofree nounwind
declare i32 @__cxa_atexit(void (i8*)*, i8*, i8*) local_unnamed_addr #2

; Function Attrs: mustprogress norecurse sspstrong uwtable
define dso_local i32 @main() local_unnamed_addr #3 {
  %1 = alloca i32, align 4
  %2 = alloca [100 x float], align 16
  %3 = alloca i32, align 4
  %4 = bitcast i32* %1 to i8*
  call void @llvm.lifetime.start.p0i8(i64 4, i8* nonnull %4) #8
  store i32 0, i32* %1, align 4, !tbaa !5
  %5 = call nonnull align 8 dereferenceable(16) %"class.std::basic_istream"* @_ZNSirsERi(%"class.std::basic_istream"* nonnull align 8 dereferenceable(16) @_ZSt3cin, i32* nonnull align 4 dereferenceable(4) %1)
  %6 = bitcast [100 x float]* %2 to i8*
  call void @llvm.lifetime.start.p0i8(i64 400, i8* nonnull %6) #8
  %7 = getelementptr inbounds [100 x float], [100 x float]* %2, i64 0, i64 0
  store float 2.000000e+00, float* %7, align 16, !tbaa !9
  %8 = getelementptr inbounds [100 x float], [100 x float]* %2, i64 0, i64 1
  store float 1.500000e+00, float* %8, align 4, !tbaa !9
  br label %9

9:                                                ; preds = %9, %0
  %10 = phi i64 [ 2, %0 ], [ %28, %9 ]
  %11 = phi <2 x float> [ <float 2.000000e+00, float 3.000000e+00>, %0 ], [ %27, %9 ]
  %12 = phi <2 x float> [ <float 1.000000e+00, float 2.000000e+00>, %0 ], [ %19, %9 ]
  %13 = fadd <2 x float> %12, %11
  %14 = extractelement <2 x float> %13, i32 0
  %15 = extractelement <2 x float> %13, i32 1
  %16 = fdiv float %15, %14
  %17 = getelementptr inbounds [100 x float], [100 x float]* %2, i64 0, i64 %10
  store float %16, float* %17, align 8, !tbaa !9
  %18 = fptosi <2 x float> %13 to <2 x i32>
  %19 = sitofp <2 x i32> %18 to <2 x float>
  %20 = or i64 %10, 1
  %21 = fadd <2 x float> %11, %19
  %22 = extractelement <2 x float> %21, i32 0
  %23 = extractelement <2 x float> %21, i32 1
  %24 = fdiv float %23, %22
  %25 = getelementptr inbounds [100 x float], [100 x float]* %2, i64 0, i64 %20
  store float %24, float* %25, align 4, !tbaa !9
  %26 = fptosi <2 x float> %21 to <2 x i32>
  %27 = sitofp <2 x i32> %26 to <2 x float>
  %28 = add nuw nsw i64 %10, 2
  %29 = icmp eq i64 %28, 100
  br i1 %29, label %30, label %9, !llvm.loop !11

30:                                               ; preds = %9
  %31 = bitcast i32* %3 to i8*
  call void @llvm.lifetime.start.p0i8(i64 4, i8* nonnull %31) #8
  store i32 0, i32* %3, align 4, !tbaa !5
  %32 = load i32, i32* %1, align 4, !tbaa !5
  %33 = icmp sgt i32 %32, 0
  br i1 %33, label %34, label %121

34:                                               ; preds = %30, %114
  %35 = phi i32 [ %118, %114 ], [ 0, %30 ]
  %36 = call nonnull align 8 dereferenceable(16) %"class.std::basic_istream"* @_ZNSirsERi(%"class.std::basic_istream"* nonnull align 8 dereferenceable(16) @_ZSt3cin, i32* nonnull align 4 dereferenceable(4) %3)
  %37 = load i32, i32* %3, align 4, !tbaa !5
  %38 = icmp sgt i32 %37, 0
  br i1 %38, label %39, label %88

39:                                               ; preds = %34
  %40 = zext i32 %37 to i64
  %41 = add nsw i64 %40, -1
  %42 = and i64 %40, 3
  %43 = icmp ult i64 %41, 3
  br i1 %43, label %72, label %44

44:                                               ; preds = %39
  %45 = and i64 %40, 4294967292
  br label %46

46:                                               ; preds = %46, %44
  %47 = phi i64 [ 0, %44 ], [ %69, %46 ]
  %48 = phi double [ 0.000000e+00, %44 ], [ %68, %46 ]
  %49 = phi i64 [ %45, %44 ], [ %70, %46 ]
  %50 = getelementptr inbounds [100 x float], [100 x float]* %2, i64 0, i64 %47
  %51 = load float, float* %50, align 16, !tbaa !9
  %52 = fpext float %51 to double
  %53 = fadd double %48, %52
  %54 = or i64 %47, 1
  %55 = getelementptr inbounds [100 x float], [100 x float]* %2, i64 0, i64 %54
  %56 = load float, float* %55, align 4, !tbaa !9
  %57 = fpext float %56 to double
  %58 = fadd double %53, %57
  %59 = or i64 %47, 2
  %60 = getelementptr inbounds [100 x float], [100 x float]* %2, i64 0, i64 %59
  %61 = load float, float* %60, align 8, !tbaa !9
  %62 = fpext float %61 to double
  %63 = fadd double %58, %62
  %64 = or i64 %47, 3
  %65 = getelementptr inbounds [100 x float], [100 x float]* %2, i64 0, i64 %64
  %66 = load float, float* %65, align 4, !tbaa !9
  %67 = fpext float %66 to double
  %68 = fadd double %63, %67
  %69 = add nuw nsw i64 %47, 4
  %70 = add i64 %49, -4
  %71 = icmp eq i64 %70, 0
  br i1 %71, label %72, label %46, !llvm.loop !13

72:                                               ; preds = %46, %39
  %73 = phi double [ undef, %39 ], [ %68, %46 ]
  %74 = phi i64 [ 0, %39 ], [ %69, %46 ]
  %75 = phi double [ 0.000000e+00, %39 ], [ %68, %46 ]
  %76 = icmp eq i64 %42, 0
  br i1 %76, label %88, label %77

77:                                               ; preds = %72, %77
  %78 = phi i64 [ %85, %77 ], [ %74, %72 ]
  %79 = phi double [ %84, %77 ], [ %75, %72 ]
  %80 = phi i64 [ %86, %77 ], [ %42, %72 ]
  %81 = getelementptr inbounds [100 x float], [100 x float]* %2, i64 0, i64 %78
  %82 = load float, float* %81, align 4, !tbaa !9
  %83 = fpext float %82 to double
  %84 = fadd double %79, %83
  %85 = add nuw nsw i64 %78, 1
  %86 = add i64 %80, -1
  %87 = icmp eq i64 %86, 0
  br i1 %87, label %88, label %77, !llvm.loop !14

88:                                               ; preds = %72, %77, %34
  %89 = phi double [ 0.000000e+00, %34 ], [ %73, %72 ], [ %84, %77 ]
  %90 = call i32 (i8*, ...) @printf(i8* nonnull dereferenceable(1) getelementptr inbounds ([5 x i8], [5 x i8]* @.str, i64 0, i64 0), double %89)
  %91 = load i8*, i8** bitcast (%"class.std::basic_ostream"* @_ZSt4cout to i8**), align 8, !tbaa !16
  %92 = getelementptr i8, i8* %91, i64 -24
  %93 = bitcast i8* %92 to i64*
  %94 = load i64, i64* %93, align 8
  %95 = add nsw i64 %94, 240
  %96 = getelementptr inbounds i8, i8* bitcast (%"class.std::basic_ostream"* @_ZSt4cout to i8*), i64 %95
  %97 = bitcast i8* %96 to %"class.std::ctype"**
  %98 = load %"class.std::ctype"*, %"class.std::ctype"** %97, align 8, !tbaa !18
  %99 = icmp eq %"class.std::ctype"* %98, null
  br i1 %99, label %100, label %101

100:                                              ; preds = %88
  call void @_ZSt16__throw_bad_castv() #9
  unreachable

101:                                              ; preds = %88
  %102 = getelementptr inbounds %"class.std::ctype", %"class.std::ctype"* %98, i64 0, i32 8
  %103 = load i8, i8* %102, align 8, !tbaa !22
  %104 = icmp eq i8 %103, 0
  br i1 %104, label %108, label %105

105:                                              ; preds = %101
  %106 = getelementptr inbounds %"class.std::ctype", %"class.std::ctype"* %98, i64 0, i32 9, i64 10
  %107 = load i8, i8* %106, align 1, !tbaa !24
  br label %114

108:                                              ; preds = %101
  call void @_ZNKSt5ctypeIcE13_M_widen_initEv(%"class.std::ctype"* nonnull align 8 dereferenceable(570) %98)
  %109 = bitcast %"class.std::ctype"* %98 to i8 (%"class.std::ctype"*, i8)***
  %110 = load i8 (%"class.std::ctype"*, i8)**, i8 (%"class.std::ctype"*, i8)*** %109, align 8, !tbaa !16
  %111 = getelementptr inbounds i8 (%"class.std::ctype"*, i8)*, i8 (%"class.std::ctype"*, i8)** %110, i64 6
  %112 = load i8 (%"class.std::ctype"*, i8)*, i8 (%"class.std::ctype"*, i8)** %111, align 8
  %113 = call signext i8 %112(%"class.std::ctype"* nonnull align 8 dereferenceable(570) %98, i8 signext 10)
  br label %114

114:                                              ; preds = %105, %108
  %115 = phi i8 [ %107, %105 ], [ %113, %108 ]
  %116 = call nonnull align 8 dereferenceable(8) %"class.std::basic_ostream"* @_ZNSo3putEc(%"class.std::basic_ostream"* nonnull align 8 dereferenceable(8) @_ZSt4cout, i8 signext %115)
  %117 = call nonnull align 8 dereferenceable(8) %"class.std::basic_ostream"* @_ZNSo5flushEv(%"class.std::basic_ostream"* nonnull align 8 dereferenceable(8) %116)
  %118 = add nuw nsw i32 %35, 1
  %119 = load i32, i32* %1, align 4, !tbaa !5
  %120 = icmp slt i32 %118, %119
  br i1 %120, label %34, label %121, !llvm.loop !25

121:                                              ; preds = %114, %30
  call void @llvm.lifetime.end.p0i8(i64 4, i8* nonnull %31) #8
  call void @llvm.lifetime.end.p0i8(i64 400, i8* nonnull %6) #8
  call void @llvm.lifetime.end.p0i8(i64 4, i8* nonnull %4) #8
  ret i32 0
}

; Function Attrs: argmemonly mustprogress nofree nosync nounwind willreturn
declare void @llvm.lifetime.start.p0i8(i64 immarg, i8* nocapture) #4

declare nonnull align 8 dereferenceable(16) %"class.std::basic_istream"* @_ZNSirsERi(%"class.std::basic_istream"* nonnull align 8 dereferenceable(16), i32* nonnull align 4 dereferenceable(4)) local_unnamed_addr #0

; Function Attrs: nofree nounwind
declare noundef i32 @printf(i8* nocapture noundef readonly, ...) local_unnamed_addr #5

; Function Attrs: argmemonly mustprogress nofree nosync nounwind willreturn
declare void @llvm.lifetime.end.p0i8(i64 immarg, i8* nocapture) #4

declare nonnull align 8 dereferenceable(8) %"class.std::basic_ostream"* @_ZNSo3putEc(%"class.std::basic_ostream"* nonnull align 8 dereferenceable(8), i8 signext) local_unnamed_addr #0

declare nonnull align 8 dereferenceable(8) %"class.std::basic_ostream"* @_ZNSo5flushEv(%"class.std::basic_ostream"* nonnull align 8 dereferenceable(8)) local_unnamed_addr #0

; Function Attrs: noreturn
declare void @_ZSt16__throw_bad_castv() local_unnamed_addr #6

declare void @_ZNKSt5ctypeIcE13_M_widen_initEv(%"class.std::ctype"* nonnull align 8 dereferenceable(570)) local_unnamed_addr #0

; Function Attrs: sspstrong uwtable
define internal void @_GLOBAL__sub_I_1587.cpp() #7 section ".text.startup" {
  tail call void @_ZNSt8ios_base4InitC1Ev(%"class.std::ios_base::Init"* nonnull align 1 dereferenceable(1) @_ZStL8__ioinit)
  %1 = tail call i32 @__cxa_atexit(void (i8*)* bitcast (void (%"class.std::ios_base::Init"*)* @_ZNSt8ios_base4InitD1Ev to void (i8*)*), i8* getelementptr inbounds (%"class.std::ios_base::Init", %"class.std::ios_base::Init"* @_ZStL8__ioinit, i64 0, i32 0), i8* nonnull @__dso_handle) #8
  ret void
}


!llvm.module.flags = !{!0, !1, !2, !3}
!llvm.ident = !{!4}

!0 = !{i32 1, !"wchar_size", i32 4}
!1 = !{i32 7, !"PIC Level", i32 2}
!2 = !{i32 7, !"PIE Level", i32 2}
!3 = !{i32 7, !"uwtable", i32 1}
!4 = !{!"clang version 13.0.0"}
!5 = !{!6, !6, i64 0}
!6 = !{!"int", !7, i64 0}
!7 = !{!"omnipotent char", !8, i64 0}
!8 = !{!"Simple C++ TBAA"}
!9 = !{!10, !10, i64 0}
!10 = !{!"float", !7, i64 0}
!11 = distinct !{!11, !12}
!12 = !{!"llvm.loop.mustprogress"}
!13 = distinct !{!13, !12}
!14 = distinct !{!14, !15}
!15 = !{!"llvm.loop.unroll.disable"}
!16 = !{!17, !17, i64 0}
!17 = !{!"vtable pointer", !8, i64 0}
!18 = !{!19, !20, i64 240}
!19 = !{!"_ZTSSt9basic_iosIcSt11char_traitsIcEE", !20, i64 216, !7, i64 224, !21, i64 225, !20, i64 232, !20, i64 240, !20, i64 248, !20, i64 256}
!20 = !{!"any pointer", !7, i64 0}
!21 = !{!"bool", !7, i64 0}
!22 = !{!23, !7, i64 56}
!23 = !{!"_ZTSSt5ctypeIcE", !20, i64 16, !21, i64 24, !20, i64 32, !20, i64 40, !20, i64 48, !7, i64 56, !7, i64 57, !7, i64 313, !7, i64 569}
!24 = !{!7, !7, i64 0}
!25 = distinct !{!25, !12}
